; Function Attrs: mustprogress uwtable
define hidden void @_ZN2cv10xobjdetect18CvLBPFeatureParamsC2Ev(ptr noundef nonnull align 8 dereferenceable(48) %0) unnamed_addr #3 align 2 personality ptr @__gxx_personality_v0 {
  tail call void @_ZN2cv10xobjdetect15CvFeatureParamsC2Ev(ptr noundef nonnull align 8 dereferenceable(48) %0)
  store ptr getelementptr inbounds inrange(-16, 64) (i8, ptr @_ZTVN2cv10xobjdetect18CvLBPFeatureParamsE, i64 16), ptr %0, align 8
  %2 = getelementptr inbounds i8, ptr %0, i64 40
  store i32 256, ptr %2, align 8
  %3 = getelementptr inbounds i8, ptr %0, i64 8
  %4 = invoke noundef nonnull align 8 dereferenceable(32) ptr @_ZNSt7__cxx1112basic_stringIcSt11char_traitsIcESaIcEEaSEPKc(ptr noundef nonnull align 8 dereferenceable(32) %3, ptr noundef nonnull @.str)
          to label %5 unwind label %6

5:                                                ; preds = %1
  ret void

6:                                                ; preds = %1
  %7 = landingpad { ptr, i32 }
          cleanup
  store ptr getelementptr inbounds inrange(-16, 56) (i8, ptr @_ZTVN2cv10xobjdetect8CvParamsE, i64 16), ptr %0, align 8
  tail call void @_ZNSt7__cxx1112basic_stringIcSt11char_traitsIcESaIcEED1Ev(ptr noundef nonnull align 8 dereferenceable(32) %3) #15
  resume { ptr, i32 } %7
}